target datalayout = "e-m:e-p270:32:32-p271:32:32-p272:64:64-i64:64-i128:128-f80:128-n8:16:32:64-S128"
target triple = "x86_64-pc-linux-gnu"

%struct.lua_State = type { %struct.GCRef, i8, i8, i8, i8, %struct.MRef, %struct.GCRef, ptr, ptr, %struct.MRef, %struct.MRef, %struct.GCRef, %struct.GCRef, ptr, i32 }
%struct.MRef = type { i64 }
%struct.GCRef = type { i64 }
%union.TValue = type { i64 }
%struct.GG_State = type { %struct.lua_State, %struct.global_State, %struct.jit_State, [64 x i16], [243 x ptr], [57 x i32] }
%struct.global_State = type { ptr, ptr, %struct.GCState, %struct.GCstr, i8, i8, i8, i8, %struct.StrInternState, i32, %struct.GCRef, %struct.SBuf, %union.TValue, %union.TValue, %struct.Node, %union.TValue, %struct.GCupval, i32, i32, ptr, ptr, ptr, i32, i32, %struct.GCRef, %struct.MRef, %struct.MRef, %struct.PRNGState, [39 x %struct.GCRef] }
%struct.GCState = type { i64, i64, i8, i8, i8, i8, i32, %struct.GCRef, %struct.MRef, %struct.GCRef, %struct.GCRef, %struct.GCRef, %struct.GCRef, i64, i64, i32, i32, %struct.MRef }
%struct.GCstr = type { %struct.GCRef, i8, i8, i8, i8, i32, i32, i32 }
%struct.StrInternState = type { ptr, i32, i32, i32, i8, i8, i8, i8, i64 }
%struct.SBuf = type { ptr, ptr, ptr, %struct.MRef }
%struct.Node = type { %union.TValue, %union.TValue, %struct.MRef }
%struct.GCupval = type { %struct.GCRef, i8, i8, i8, i8, %union.anon, %struct.MRef, i32 }
%union.anon = type { %struct.anon.1 }
%struct.anon.1 = type { %struct.GCRef, %struct.GCRef }
%struct.PRNGState = type { [4 x i64] }
%struct.jit_State = type { %struct.GCtrace, ptr, ptr, ptr, ptr, ptr, ptr, i32, i32, i32, i8, i8, %struct.IRType1, i8, %struct.FoldState, ptr, i32, i32, i32, i32, i32, i32, i32, [1 x i32], [5 x %union.TValue], [3 x %union.TValue], ptr, i32, i32, i32, i32, ptr, ptr, i32, i32, i8, ptr, i32, i32, i16, [101 x i16], [258 x i32], [15 x i32], [16 x ptr], [64 x %struct.HotPenalty], i32, [16 x %struct.BPropEntry], i32, %struct.ScEvEntry, ptr, i32, i32, i32, ptr, i32, i32, ptr, ptr, ptr, i64, i64, %union.TValue, ptr, i32, i32 }
%struct.GCtrace = type { %struct.GCRef, i8, i8, i16, i32, i32, %struct.GCRef, ptr, i32, i32, ptr, ptr, %struct.GCRef, %struct.MRef, i32, i32, ptr, i32, i16, i16, i16, i16, i16, i16, i16, i8, i8, i8, i8 }
%struct.IRType1 = type { i8 }
%struct.FoldState = type { %union.IRIns, [2 x %union.IRIns], [2 x %union.IRIns] }
%union.IRIns = type { %struct.GCRef }
%struct.HotPenalty = type { %struct.MRef, i16, i16 }
%struct.BPropEntry = type { i16, i16, i32 }
%struct.ScEvEntry = type { %struct.MRef, i16, i16, i16, i16, %struct.IRType1, i8 }

@.str = private unnamed_addr constant [7 x i8] c"%s: %s\00", align 1
@.str.1 = private unnamed_addr constant [3 x i8] c"%s\00", align 1
@.str.2 = private unnamed_addr constant [7 x i8] c"signal\00", align 1
@.str.3 = private unnamed_addr constant [5 x i8] c"exit\00", align 1

; Function Attrs: nounwind uwtable
define dso_local i32 @luaL_fileresult(ptr noundef %0, i32 noundef %1, ptr noundef %2) #0 {
  %4 = alloca i32, align 4
  %5 = alloca ptr, align 8
  %6 = alloca i32, align 4
  %7 = alloca ptr, align 8
  %8 = alloca i32, align 4
  store ptr %0, ptr %5, align 8, !tbaa !4
  store i32 %1, ptr %6, align 4, !tbaa !9
  store ptr %2, ptr %7, align 8, !tbaa !11
  %9 = load i32, ptr %6, align 4, !tbaa !9
  %10 = icmp ne i32 %9, 0
  br i1 %10, label %11, label %16

11:                                               ; preds = %3
  %12 = load ptr, ptr %5, align 8, !tbaa !4
  %13 = getelementptr inbounds nuw %struct.lua_State, ptr %12, i32 0, i32 8
  %14 = load ptr, ptr %13, align 8, !tbaa !13
  %15 = getelementptr inbounds nuw %union.TValue, ptr %14, i32 1
  store ptr %15, ptr %13, align 8, !tbaa !13
  store i64 -281474976710657, ptr %14, align 8, !tbaa !19
  store i32 1, ptr %4, align 4
  br label %52

16:                                               ; preds = %3
  call void @llvm.lifetime.start.p0(i64 4, ptr %8) #9
  %17 = call ptr @__errno_location() #10
  %18 = load i32, ptr %17, align 4, !tbaa !9
  store i32 %18, ptr %8, align 4, !tbaa !9
  %19 = load ptr, ptr %5, align 8, !tbaa !4
  %20 = getelementptr inbounds nuw %struct.lua_State, ptr %19, i32 0, i32 8
  %21 = load ptr, ptr %20, align 8, !tbaa !13
  %22 = getelementptr inbounds nuw %union.TValue, ptr %21, i32 1
  store ptr %22, ptr %20, align 8, !tbaa !13
  store i64 -1, ptr %21, align 8, !tbaa !19
  %23 = load ptr, ptr %7, align 8, !tbaa !11
  %24 = icmp ne ptr %23, null
  br i1 %24, label %25, label %31

25:                                               ; preds = %16
  %26 = load ptr, ptr %5, align 8, !tbaa !4
  %27 = load ptr, ptr %7, align 8, !tbaa !11
  %28 = load i32, ptr %8, align 4, !tbaa !9
  %29 = call ptr @strerror(i32 noundef %28) #9
  %30 = call ptr (ptr, ptr, ...) @lua_pushfstring(ptr noundef %26, ptr noundef @.str, ptr noundef %27, ptr noundef %29)
  br label %36

31:                                               ; preds = %16
  %32 = load ptr, ptr %5, align 8, !tbaa !4
  %33 = load i32, ptr %8, align 4, !tbaa !9
  %34 = call ptr @strerror(i32 noundef %33) #9
  %35 = call ptr (ptr, ptr, ...) @lua_pushfstring(ptr noundef %32, ptr noundef @.str.1, ptr noundef %34)
  br label %36

36:                                               ; preds = %31, %25
  %37 = load ptr, ptr %5, align 8, !tbaa !4
  %38 = getelementptr inbounds nuw %struct.lua_State, ptr %37, i32 0, i32 8
  %39 = load ptr, ptr %38, align 8, !tbaa !13
  %40 = getelementptr inbounds nuw %union.TValue, ptr %39, i32 1
  store ptr %40, ptr %38, align 8, !tbaa !13
  %41 = load i32, ptr %8, align 4, !tbaa !9
  call void @setintV(ptr noundef %39, i32 noundef %41)
  %42 = load ptr, ptr %5, align 8, !tbaa !4
  %43 = getelementptr inbounds nuw %struct.lua_State, ptr %42, i32 0, i32 5
  %44 = getelementptr inbounds nuw %struct.MRef, ptr %43, i32 0, i32 0
  %45 = load i64, ptr %44, align 8, !tbaa !20
  %46 = inttoptr i64 %45 to ptr
  %47 = getelementptr inbounds i8, ptr %46, i64 -96
  %48 = getelementptr inbounds nuw %struct.GG_State, ptr %47, i32 0, i32 2
  %49 = getelementptr inbounds nuw %struct.jit_State, ptr %48, i32 0, i32 17
  %50 = load i32, ptr %49, align 4, !tbaa !21
  %51 = and i32 %50, -17
  store i32 %51, ptr %49, align 4, !tbaa !21
  store i32 3, ptr %4, align 4
  call void @llvm.lifetime.end.p0(i64 4, ptr %8) #9
  br label %52

52:                                               ; preds = %36, %11
  %53 = load i32, ptr %4, align 4
  ret i32 %53
}

; Function Attrs: alwaysinline nounwind uwtable
define internal void @setintV(ptr noundef %0, i32 noundef %1) #5 {
  %3 = alloca ptr, align 8
  %4 = alloca i32, align 4
  store ptr %0, ptr %3, align 8, !tbaa !44
  store i32 %1, ptr %4, align 4, !tbaa !9
  %5 = load i32, ptr %4, align 4, !tbaa !9
  %6 = sitofp i32 %5 to double
  %7 = load ptr, ptr %3, align 8, !tbaa !44
  store double %6, ptr %7, align 8, !tbaa !19
  ret void
}

; Function Attrs: nounwind uwtable
define dso_local i32 @luaL_execresult(ptr noundef %0, i32 noundef %1) #0 {
  %3 = alloca i32, align 4
  %4 = alloca ptr, align 8
  %5 = alloca i32, align 4
  store ptr %0, ptr %4, align 8, !tbaa !4
  store i32 %1, ptr %5, align 4, !tbaa !9
  %6 = load i32, ptr %5, align 4, !tbaa !9
  %7 = icmp ne i32 %6, -1
  br i1 %7, label %8, label %53

8:                                                ; preds = %2
  %9 = load i32, ptr %5, align 4, !tbaa !9
  %10 = and i32 %9, 127
  %11 = add nsw i32 %10, 1
  %12 = trunc i32 %11 to i8
  %13 = sext i8 %12 to i32
  %14 = ashr i32 %13, 1
  %15 = icmp sgt i32 %14, 0
  br i1 %15, label %16, label %24

16:                                               ; preds = %8
  %17 = load i32, ptr %5, align 4, !tbaa !9
  %18 = and i32 %17, 127
  store i32 %18, ptr %5, align 4, !tbaa !9
  %19 = load ptr, ptr %4, align 8, !tbaa !4
  %20 = getelementptr inbounds nuw %struct.lua_State, ptr %19, i32 0, i32 8
  %21 = load ptr, ptr %20, align 8, !tbaa !13
  %22 = getelementptr inbounds nuw %union.TValue, ptr %21, i32 1
  store ptr %22, ptr %20, align 8, !tbaa !13
  store i64 -1, ptr %21, align 8, !tbaa !19
  %23 = load ptr, ptr %4, align 8, !tbaa !4
  call void @lua_pushlstring(ptr noundef %23, ptr noundef @.str.2, i64 noundef 6)
  br label %47

24:                                               ; preds = %8
  %25 = load i32, ptr %5, align 4, !tbaa !9
  %26 = and i32 %25, 127
  %27 = icmp eq i32 %26, 0
  br i1 %27, label %28, label %32

28:                                               ; preds = %24
  %29 = load i32, ptr %5, align 4, !tbaa !9
  %30 = and i32 %29, 65280
  %31 = ashr i32 %30, 8
  store i32 %31, ptr %5, align 4, !tbaa !9
  br label %32

32:                                               ; preds = %28, %24
  %33 = load i32, ptr %5, align 4, !tbaa !9
  %34 = icmp eq i32 %33, 0
  br i1 %34, label %35, label %40

35:                                               ; preds = %32
  %36 = load ptr, ptr %4, align 8, !tbaa !4
  %37 = getelementptr inbounds nuw %struct.lua_State, ptr %36, i32 0, i32 8
  %38 = load ptr, ptr %37, align 8, !tbaa !13
  %39 = getelementptr inbounds nuw %union.TValue, ptr %38, i32 1
  store ptr %39, ptr %37, align 8, !tbaa !13
  store i64 -281474976710657, ptr %38, align 8, !tbaa !19
  br label %45

40:                                               ; preds = %32
  %41 = load ptr, ptr %4, align 8, !tbaa !4
  %42 = getelementptr inbounds nuw %struct.lua_State, ptr %41, i32 0, i32 8
  %43 = load ptr, ptr %42, align 8, !tbaa !13
  %44 = getelementptr inbounds nuw %union.TValue, ptr %43, i32 1
  store ptr %44, ptr %42, align 8, !tbaa !13
  store i64 -1, ptr %43, align 8, !tbaa !19
  br label %45

45:                                               ; preds = %40, %35
  %46 = load ptr, ptr %4, align 8, !tbaa !4
  call void @lua_pushlstring(ptr noundef %46, ptr noundef @.str.3, i64 noundef 4)
  br label %47

47:                                               ; preds = %45, %16
  %48 = load ptr, ptr %4, align 8, !tbaa !4
  %49 = getelementptr inbounds nuw %struct.lua_State, ptr %48, i32 0, i32 8
  %50 = load ptr, ptr %49, align 8, !tbaa !13
  %51 = getelementptr inbounds nuw %union.TValue, ptr %50, i32 1
  store ptr %51, ptr %49, align 8, !tbaa !13
  %52 = load i32, ptr %5, align 4, !tbaa !9
  call void @setintV(ptr noundef %50, i32 noundef %52)
  store i32 3, ptr %3, align 4
  br label %56

53:                                               ; preds = %2
  %54 = load ptr, ptr %4, align 8, !tbaa !4
  %55 = call i32 @luaL_fileresult(ptr noundef %54, i32 noundef 0, ptr noundef null)
  store i32 %55, ptr %3, align 4
  br label %56

56:                                               ; preds = %53, %47
  %57 = load i32, ptr %3, align 4
  ret i32 %57
}