; Function Attrs: nounwind uwtable
define dso_local noundef range(i32 1, 4) i32 @luaL_execresult(ptr noundef %0, i32 noundef %1) local_unnamed_addr #0 {
  %.not = icmp eq i32 %1, -1
  br i1 %.not, label %24, label %3

3:                                                ; preds = %2
  %4 = and i32 %1, 127
  %5 = shl nuw nsw i32 %4, 24
  %sext = add nuw i32 %5, 16777216
  %6 = icmp sgt i32 %sext, 33554431
  br i1 %6, label %7, label %11

7:                                                ; preds = %3
  %8 = getelementptr inbounds nuw i8, ptr %0, i64 40
  %9 = load ptr, ptr %8, align 8, !tbaa !4
  %10 = getelementptr inbounds nuw i8, ptr %9, i64 8
  store ptr %10, ptr %8, align 8, !tbaa !4
  store i64 -1, ptr %9, align 8, !tbaa !14
  tail call void @lua_pushlstring(ptr noundef %0, ptr noundef nonnull @.str.2, i64 noundef 6) #13
  br label %19

11:                                               ; preds = %3
  %12 = icmp eq i32 %4, 0
  %13 = lshr i32 %1, 8
  %14 = and i32 %13, 255
  %.1 = select i1 %12, i32 %14, i32 %1
  %15 = icmp eq i32 %.1, 0
  %16 = getelementptr inbounds nuw i8, ptr %0, i64 40
  %17 = load ptr, ptr %16, align 8, !tbaa !4
  %18 = getelementptr inbounds nuw i8, ptr %17, i64 8
  store ptr %18, ptr %16, align 8, !tbaa !4
  %. = select i1 %15, i64 -281474976710657, i64 -1
  store i64 %., ptr %17, align 8, !tbaa !14
  tail call void @lua_pushlstring(ptr noundef nonnull %0, ptr noundef nonnull @.str.3, i64 noundef 4) #13
  br label %19

19:                                               ; preds = %11, %7
  %.0 = phi i32 [ %4, %7 ], [ %.1, %11 ]
  %20 = getelementptr inbounds nuw i8, ptr %0, i64 40
  %21 = load ptr, ptr %20, align 8, !tbaa !4
  %22 = getelementptr inbounds nuw i8, ptr %21, i64 8
  store ptr %22, ptr %20, align 8, !tbaa !4
  %23 = sitofp i32 %.0 to double
  store double %23, ptr %21, align 8, !tbaa !14
  br label %41

24:                                               ; preds = %2
  %25 = tail call ptr @__errno_location() #12
  %26 = load i32, ptr %25, align 4, !tbaa !15
  %27 = getelementptr inbounds nuw i8, ptr %0, i64 40
  %28 = load ptr, ptr %27, align 8, !tbaa !4
  %29 = getelementptr inbounds nuw i8, ptr %28, i64 8
  store ptr %29, ptr %27, align 8, !tbaa !4
  store i64 -1, ptr %28, align 8, !tbaa !14
  %30 = tail call ptr @strerror(i32 noundef %26) #13
  %31 = tail call ptr (ptr, ptr, ...) @lua_pushfstring(ptr noundef nonnull %0, ptr noundef nonnull @.str.1, ptr noundef %30) #13
  %32 = load ptr, ptr %27, align 8, !tbaa !4
  %33 = getelementptr inbounds nuw i8, ptr %32, i64 8
  store ptr %33, ptr %27, align 8, !tbaa !4
  %34 = sitofp i32 %26 to double
  store double %34, ptr %32, align 8, !tbaa !14
  %35 = getelementptr inbounds nuw i8, ptr %0, i64 16
  %36 = load i64, ptr %35, align 8, !tbaa !16
  %37 = inttoptr i64 %36 to ptr
  %38 = getelementptr inbounds nuw i8, ptr %37, i64 972
  %39 = load i32, ptr %38, align 4, !tbaa !17
  %40 = and i32 %39, -17
  store i32 %40, ptr %38, align 4, !tbaa !17
  br label %41

41:                                               ; preds = %24, %19
  ret i32 3
}